; Function Attrs: nounwind uwtable
define internal ptr @getargs_K(ptr readnone captures(none) %0, ptr noundef %1) #0 {
  %3 = alloca i64, align 8
  call void @llvm.lifetime.start.p0(i64 8, ptr nonnull %3) #7
  %4 = call i32 (ptr, ptr, ...) @PyArg_ParseTuple(ptr noundef %1, ptr noundef nonnull @.str.51, ptr noundef nonnull %3) #7
  %.not = icmp eq i32 %4, 0
  br i1 %.not, label %8, label %5

5:                                                ; preds = %2
  %6 = load i64, ptr %3, align 8, !tbaa !10
  %7 = call ptr @PyLong_FromUnsignedLongLong(i64 noundef %6) #7
  br label %8

8:                                                ; preds = %2, %5
  %.0 = phi ptr [ %7, %5 ], [ null, %2 ]
  call void @llvm.lifetime.end.p0(i64 8, ptr nonnull %3) #7
  ret ptr %.0
}